; Function Attrs: nounwind uwtable
define void @png_progressive_combine_row(ptr noalias noundef %0, ptr noundef %1, ptr noundef readnone %2) local_unnamed_addr #0 {
  %4 = icmp ne ptr %0, null
  %5 = icmp ne ptr %2, null
  %or.cond = and i1 %4, %5
  br i1 %or.cond, label %6, label %7

6:                                                ; preds = %3
  tail call void @png_combine_row(ptr noundef nonnull %0, ptr noundef %1, i32 noundef 1) #11
  br label %7

7:                                                ; preds = %3, %6
  ret void
}